(dp0
Vengine
p1
S'pdflatex'
p2
sVpackages
p3
c__builtin__
set
p4
((lp5
Vhyperref
p6
aVgeometry
p7
aVbabel
p8
aVamsmath
p9
aVinputenc
p10
aVsubcaption
p11
aVfontenc
p12
aVamsfonts
p13
aVgraphicx
p14
aVtodonotes
p15
atp16
Rp17
sVfiles_with_guttermarks
p18
g4
((lp19
S'write.tex'
p20
aV/Users/jessie/git_reps/VTdyn/writeup/./write.tex
p21
aV/Users/jessie/git_reps/VTdyn/writeup/write.tex
p22
atp23
Rp24
sVsynctex
p25
I01
s.